; Function Attrs: mustprogress uwtable
define hidden noundef ptr @_ZN7datalog19sparse_table_plugin18mk_join_project_fnERKNS_10table_baseES3_jPKjS5_jS5_(ptr nocapture noundef nonnull readonly align 8 dereferenceable(56) %this, ptr noundef nonnull align 8 dereferenceable(36) %t1, ptr noundef nonnull align 8 dereferenceable(36) %t2, i32 noundef %col_cnt, ptr noundef %cols1, ptr noundef %cols2, i32 noundef %removed_col_cnt, ptr noundef %removed_cols) unnamed_addr #3 align 2 personality ptr @__gxx_personality_v0 {
entry:
  %m_signature.i = getelementptr inbounds i8, ptr %t1, i64 16
  %m_signature.i11 = getelementptr inbounds i8, ptr %t2, i64 16
  %m_kind.i = getelementptr inbounds i8, ptr %t1, i64 32
  %0 = load i32, ptr %m_kind.i, align 8
  %m_kind.i12 = getelementptr inbounds i8, ptr %this, i64 8
  %1 = load i32, ptr %m_kind.i12, align 8
  %cmp.not = icmp eq i32 %0, %1
  %m_kind.i13 = getelementptr inbounds i8, ptr %t2, i64 32
  %2 = load i32, ptr %m_kind.i13, align 8
  %cmp7.not = icmp eq i32 %2, %1
  %or.cond = select i1 %cmp.not, i1 %cmp7.not, i1 false
  br i1 %or.cond, label %lor.lhs.false8, label %return

lor.lhs.false8:                                   ; preds = %entry
  %3 = load ptr, ptr %m_signature.i, align 8
  %cmp.i = icmp eq ptr %3, null
  br i1 %cmp.i, label %_ZNK6vectorImLb0EjE4sizeEv.exit, label %if.end.i

if.end.i:                                         ; preds = %lor.lhs.false8
  %arrayidx.i = getelementptr inbounds i8, ptr %3, i64 -4
  %4 = load i32, ptr %arrayidx.i, align 4
  br label %_ZNK6vectorImLb0EjE4sizeEv.exit

_ZNK6vectorImLb0EjE4sizeEv.exit:                  ; preds = %lor.lhs.false8, %if.end.i
  %retval.0.i = phi i32 [ %4, %if.end.i ], [ 0, %lor.lhs.false8 ]
  %5 = load ptr, ptr %m_signature.i11, align 8
  %cmp.i17 = icmp eq ptr %5, null
  br i1 %cmp.i17, label %_ZNK6vectorImLb0EjE4sizeEv.exit21, label %if.end.i18

if.end.i18:                                       ; preds = %_ZNK6vectorImLb0EjE4sizeEv.exit
  %arrayidx.i19 = getelementptr inbounds i8, ptr %5, i64 -4
  %6 = load i32, ptr %arrayidx.i19, align 4
  br label %_ZNK6vectorImLb0EjE4sizeEv.exit21

_ZNK6vectorImLb0EjE4sizeEv.exit21:                ; preds = %_ZNK6vectorImLb0EjE4sizeEv.exit, %if.end.i18
  %retval.0.i20 = phi i32 [ %6, %if.end.i18 ], [ 0, %_ZNK6vectorImLb0EjE4sizeEv.exit ]
  %add = add i32 %retval.0.i20, %retval.0.i
  %cmp13 = icmp eq i32 %add, %removed_col_cnt
  br i1 %cmp13, label %return, label %lor.lhs.false14

lor.lhs.false14:                                  ; preds = %_ZNK6vectorImLb0EjE4sizeEv.exit21
  %call15 = tail call noundef zeroext i1 @_ZN7datalog19sparse_table_plugin24join_involves_functionalERKNS_15table_signatureES3_jPKjS5_(ptr noundef nonnull align 8 dereferenceable(12) %m_signature.i, ptr noundef nonnull align 8 dereferenceable(12) %m_signature.i11, i32 noundef %col_cnt, ptr noundef %cols1, ptr noundef %cols2)
  br i1 %call15, label %return, label %if.end

if.end:                                           ; preds = %lor.lhs.false14
  %call16 = tail call noalias noundef ptr @_ZN6memory8allocateEm(i64 noundef 48)
  tail call void @_ZN7datalog17tr_infrastructureINS_12table_traitsEE26convenient_join_project_fnC2ERKNS_15table_signatureES6_jPKjS8_jS8_(ptr noundef nonnull align 8 dereferenceable(48) %call16, ptr noundef nonnull align 8 dereferenceable(12) %m_signature.i, ptr noundef nonnull align 8 dereferenceable(12) %m_signature.i11, i32 noundef %col_cnt, ptr noundef %cols1, ptr noundef %cols2, i32 noundef %removed_col_cnt, ptr noundef %removed_cols)
  store ptr getelementptr inbounds ({ [5 x ptr] }, ptr @_ZTVN7datalog19sparse_table_plugin15join_project_fnE, i64 0, i32 0, i64 2), ptr %call16, align 8
  %m_removed_cols.i = getelementptr inbounds i8, ptr %call16, i64 40
  %7 = load ptr, ptr %m_removed_cols.i, align 8
  %cmp.i.i = icmp eq ptr %7, null
  br i1 %cmp.i.i, label %if.then.i.i, label %lor.lhs.false.i.i

lor.lhs.false.i.i:                                ; preds = %if.end
  %arrayidx.i.i = getelementptr inbounds i8, ptr %7, i64 -4
  %8 = load i32, ptr %arrayidx.i.i, align 4
  %arrayidx4.i.i = getelementptr inbounds i8, ptr %7, i64 -8
  %9 = load i32, ptr %arrayidx4.i.i, align 4
  %cmp5.i.i = icmp eq i32 %8, %9
  br i1 %cmp5.i.i, label %if.then.i.i, label %_ZN7datalog19sparse_table_plugin15join_project_fnC2ERKNS_15table_signatureES4_jPKjS6_jS6_.exit

if.then.i.i:                                      ; preds = %lor.lhs.false.i.i, %if.end
  invoke void @_ZN6vectorIjLb0EjE13expand_vectorEv(ptr noundef nonnull align 8 dereferenceable(8) %m_removed_cols.i)
          to label %.noexc.i unwind label %lpad.i

.noexc.i:                                         ; preds = %if.then.i.i
  %.pre.i.i = load ptr, ptr %m_removed_cols.i, align 8
  %arrayidx8.phi.trans.insert.i.i = getelementptr inbounds i8, ptr %.pre.i.i, i64 -4
  %.pre1.i.i = load i32, ptr %arrayidx8.phi.trans.insert.i.i, align 4
  br label %_ZN7datalog19sparse_table_plugin15join_project_fnC2ERKNS_15table_signatureES4_jPKjS6_jS6_.exit

lpad.i:                                           ; preds = %if.then.i.i
  %10 = landingpad { ptr, i32 }
          cleanup
  tail call void @_ZN7datalog17tr_infrastructureINS_12table_traitsEE26convenient_join_project_fnD2Ev(ptr noundef nonnull align 8 dereferenceable(48) %call16) #25
  resume { ptr, i32 } %10

_ZN7datalog19sparse_table_plugin15join_project_fnC2ERKNS_15table_signatureES4_jPKjS6_jS6_.exit: ; preds = %lor.lhs.false.i.i, %.noexc.i
  %11 = phi i32 [ %.pre1.i.i, %.noexc.i ], [ %8, %lor.lhs.false.i.i ]
  %12 = phi ptr [ %.pre.i.i, %.noexc.i ], [ %7, %lor.lhs.false.i.i ]
  %idx.ext.i.i = zext i32 %11 to i64
  %add.ptr.i.i = getelementptr inbounds i32, ptr %12, i64 %idx.ext.i.i
  store i32 -1, ptr %add.ptr.i.i, align 4
  %13 = load ptr, ptr %m_removed_cols.i, align 8
  %arrayidx10.i.i = getelementptr inbounds i8, ptr %13, i64 -4
  %14 = load i32, ptr %arrayidx10.i.i, align 4
  %inc.i.i = add i32 %14, 1
  store i32 %inc.i.i, ptr %arrayidx10.i.i, align 4
  br label %return

return:                                           ; preds = %entry, %_ZNK6vectorImLb0EjE4sizeEv.exit21, %lor.lhs.false14, %_ZN7datalog19sparse_table_plugin15join_project_fnC2ERKNS_15table_signatureES4_jPKjS6_jS6_.exit
  %retval.0 = phi ptr [ %call16, %_ZN7datalog19sparse_table_plugin15join_project_fnC2ERKNS_15table_signatureES4_jPKjS6_jS6_.exit ], [ null, %lor.lhs.false14 ], [ null, %_ZNK6vectorImLb0EjE4sizeEv.exit21 ], [ null, %entry ]
  ret ptr %retval.0
}